; Function Attrs: mustprogress nounwind uwtable
define internal fastcc void @"_ZZN32pxrInternal_v0_24__pxrReserved__12_GLOBAL__N_110_AddPluginEPNS0_12_ReadContextERKNSt7__cxx1112basic_stringIcSt11char_traitsIcESaIcEEESA_mRKNS_7JsValueEEN3$_0D2Ev"(ptr noundef nonnull align 8 dereferenceable(192) %0) unnamed_addr #4 align 2 personality ptr @__gxx_personality_v0 {
  %2 = getelementptr inbounds i8, ptr %0, i64 160
  tail call void @_ZNSt7__cxx1112basic_stringIcSt11char_traitsIcESaIcEED1Ev(ptr noundef nonnull align 8 dereferenceable(32) %2) #26
  %3 = getelementptr inbounds i8, ptr %0, i64 128
  tail call void @_ZNSt7__cxx1112basic_stringIcSt11char_traitsIcESaIcEED1Ev(ptr noundef nonnull align 8 dereferenceable(32) %3) #26
  %4 = getelementptr inbounds i8, ptr %0, i64 80
  %5 = getelementptr inbounds i8, ptr %0, i64 96
  %6 = load ptr, ptr %5, align 8
  invoke void @_ZNSt8_Rb_treeINSt7__cxx1112basic_stringIcSt11char_traitsIcESaIcEEESt4pairIKS5_N32pxrInternal_v0_24__pxrReserved__7JsValueEESt10_Select1stISA_ESt4lessIS5_ESaISA_EE8_M_eraseEPSt13_Rb_tree_nodeISA_E(ptr noundef nonnull align 8 dereferenceable(48) %4, ptr noundef %6)
          to label %_ZN32pxrInternal_v0_24__pxrReserved__25Plug_RegistrationMetadataD2Ev.exit unwind label %7

7:                                                ; preds = %1
  %8 = landingpad { ptr, i32 }
          catch ptr null
  %9 = extractvalue { ptr, i32 } %8, 0
  tail call void @__clang_call_terminate(ptr %9) #27
  unreachable

_ZN32pxrInternal_v0_24__pxrReserved__25Plug_RegistrationMetadataD2Ev.exit: ; preds = %1
  %10 = getelementptr inbounds i8, ptr %0, i64 48
  tail call void @_ZNSt7__cxx1112basic_stringIcSt11char_traitsIcESaIcEED1Ev(ptr noundef nonnull align 8 dereferenceable(32) %10) #26
  %11 = getelementptr inbounds i8, ptr %0, i64 16
  tail call void @_ZNSt7__cxx1112basic_stringIcSt11char_traitsIcESaIcEED1Ev(ptr noundef nonnull align 8 dereferenceable(32) %11) #26
  ret void
}